OSAF CA
=======

Certificate:
    Data:
        Version: 3 (0x2)
        Serial Number: 0 (0x0)
        Signature Algorithm: md5WithRSAEncryption
        Issuer: C=US, ST=California, L=San Francisco, O=Open Source Application Foundation, OU=CA, CN=OSAF CA/emailAddress=hostmaster@osafoundation.org
        Validity
            Not Before: Feb 10 02:09:19 2004 GMT
            Not After : Feb  3 02:09:19 2029 GMT
        Subject: C=US, ST=California, L=San Francisco, O=Open Source Application Foundation, OU=CA, CN=OSAF CA/emailAddress=hostmaster@osafoundation.org
        Subject Public Key Info:
            Public Key Algorithm: rsaEncryption
            RSA Public Key: (1024 bit)
                Modulus (1024 bit):
                    00:b9:af:f6:09:a2:f5:b5:2f:b3:c3:43:5d:d3:ef:
                    1e:8b:82:27:24:60:9e:8c:62:31:4d:c2:e5:5c:a6:
                    a0:0c:81:67:03:79:37:36:d7:bf:4c:ba:e2:2d:fb:
                    e2:1e:5d:b3:d6:f6:ac:49:e7:a5:d5:07:06:54:63:
                    32:6c:94:67:63:11:9d:e7:19:be:94:0c:a0:98:e7:
                    4c:f3:cd:42:0d:1d:ce:f7:b8:a2:0b:c1:3e:28:f7:
                    5d:37:cc:6f:7d:80:d2:4c:9b:7c:85:8e:88:f8:22:
                    a9:c6:06:2f:53:4a:e3:df:5c:14:8b:02:4a:d3:c5:
                    a7:ea:d1:78:13:f4:13:78:31
                Exponent: 65537 (0x10001)
        X509v3 extensions:
            X509v3 Subject Key Identifier: 
                12:7E:B0:A8:97:8E:C6:58:1C:4F:3C:AD:59:EA:3F:9C:79:6F:8F:2A
            X509v3 Authority Key Identifier: 
                keyid:12:7E:B0:A8:97:8E:C6:58:1C:4F:3C:AD:59:EA:3F:9C:79:6F:8F:2A
                DirName:/C=US/ST=California/L=San Francisco/O=Open Source Application Foundation/OU=CA/CN=OSAF CA/emailAddress=hostmaster@osafoundation.org
                serial:00

            X509v3 Basic Constraints: 
                CA:TRUE
    Signature Algorithm: md5WithRSAEncryption
        13:bb:20:c4:3d:88:dc:d2:c9:17:fc:16:c3:89:cf:31:fc:08:
        1c:be:4b:ff:43:c6:e0:8e:c4:b5:b8:29:f7:cb:c5:c4:12:85:
        7f:98:23:2a:ff:26:8e:e7:9c:dc:5d:bf:5d:ec:f4:93:c0:0f:
        d1:ef:79:d6:99:ef:68:7d:4f:52:9a:6d:07:28:ae:ea:7b:30:
        f2:6e:ff:85:4b:98:27:1f:f4:26:48:37:8e:fe:ee:f5:f9:97:
        02:07:cf:bf:1b:86:cd:14:96:24:8b:70:9d:d3:83:5d:b8:d1:
        68:fc:38:d4:d3:49:f7:75:44:b6:dc:39:da:ea:f9:90:8a:7d:
        59:b0

-----BEGIN CERTIFICATE-----
MIID9DCCA12gAwIBAgIBADANBgkqhkiG9w0BAQQFADCBszELMAkGA1UEBhMCVVMx
EzARBgNVBAgTCkNhbGlmb3JuaWExFjAUBgNVBAcTDVNhbiBGcmFuY2lzY28xKzAp
BgNVBAoTIk9wZW4gU291cmNlIEFwcGxpY2F0aW9uIEZvdW5kYXRpb24xCzAJBgNV
BAsTAkNBMRAwDgYDVQQDEwdPU0FGIENBMSswKQYJKoZIhvcNAQkBFhxob3N0bWFz
dGVyQG9zYWZvdW5kYXRpb24ub3JnMB4XDTA0MDIxMDAyMDkxOVoXDTI5MDIwMzAy
MDkxOVowgbMxCzAJBgNVBAYTAlVTMRMwEQYDVQQIEwpDYWxpZm9ybmlhMRYwFAYD
VQQHEw1TYW4gRnJhbmNpc2NvMSswKQYDVQQKEyJPcGVuIFNvdXJjZSBBcHBsaWNh
dGlvbiBGb3VuZGF0aW9uMQswCQYDVQQLEwJDQTEQMA4GA1UEAxMHT1NBRiBDQTEr
MCkGCSqGSIb3DQEJARYcaG9zdG1hc3RlckBvc2Fmb3VuZGF0aW9uLm9yZzCBnzAN
BgkqhkiG9w0BAQEFAAOBjQAwgYkCgYEAua/2CaL1tS+zw0Nd0+8ei4InJGCejGIx
TcLlXKagDIFnA3k3Nte/TLriLfviHl2z1vasSeel1QcGVGMybJRnYxGd5xm+lAyg
mOdM881CDR3O97iiC8E+KPddN8xvfYDSTJt8hY6I+CKpxgYvU0rj31wUiwJK08Wn
6tF4E/QTeDECAwEAAaOCARQwggEQMB0GA1UdDgQWBBQSfrCol47GWBxPPK1Z6j+c
eW+PKjCB4AYDVR0jBIHYMIHVgBQSfrCol47GWBxPPK1Z6j+ceW+PKqGBuaSBtjCB
szELMAkGA1UEBhMCVVMxEzARBgNVBAgTCkNhbGlmb3JuaWExFjAUBgNVBAcTDVNh
biBGcmFuY2lzY28xKzApBgNVBAoTIk9wZW4gU291cmNlIEFwcGxpY2F0aW9uIEZv
dW5kYXRpb24xCzAJBgNVBAsTAkNBMRAwDgYDVQQDEwdPU0FGIENBMSswKQYJKoZI
hvcNAQkBFhxob3N0bWFzdGVyQG9zYWZvdW5kYXRpb24ub3JnggEAMAwGA1UdEwQF
MAMBAf8wDQYJKoZIhvcNAQEEBQADgYEAE7sgxD2I3NLJF/wWw4nPMfwIHL5L/0PG
4I7Etbgp98vFxBKFf5gjKv8mjuec3F2/Xez0k8AP0e951pnvaH1PUpptByiu6nsw
8m7/hUuYJx/0Jkg3jv7u9fmXAgfPvxuGzRSWJItwndODXbjRaPw41NNJ93VEttw5
2ur5kIp9WbA=
-----END CERTIFICATE-----


OSAF CA 2
=========

Certificate:
    Data:
        Version: 3 (0x2)
        Serial Number: 0 (0x0)
        Signature Algorithm: md5WithRSAEncryption
        Issuer: C=US, ST=CA, L=San Francisco, O=osafoundation.org, OU=CA, CN=OSAF CA/emailAddress=hostmaster@osafoundation.org
        Validity
            Not Before: Jun  2 21:35:23 2004 GMT
            Not After : May 27 21:35:23 2029 GMT
        Subject: C=US, ST=CA, L=San Francisco, O=osafoundation.org, OU=CA, CN=OSAF CA/emailAddress=hostmaster@osafoundation.org
        Subject Public Key Info:
            Public Key Algorithm: rsaEncryption
            RSA Public Key: (1024 bit)
                Modulus (1024 bit):
                    00:cb:ca:41:8f:44:94:fc:f8:50:e8:58:c0:a3:e1:
                    6c:7a:52:cf:1c:46:5f:14:07:88:e1:ae:40:35:7d:
                    1e:e4:da:4c:3e:77:72:ce:31:85:36:ae:e6:72:eb:
                    6e:a4:7a:aa:43:a9:6b:18:2a:e3:ec:46:64:65:f0:
                    c1:da:e5:ea:f0:01:5c:66:a6:04:02:12:f1:4f:82:
                    22:8c:4c:66:67:62:d7:33:42:1e:90:0b:8e:b5:0e:
                    af:9c:c6:fa:5e:65:6f:12:8c:cf:37:db:06:0c:f4:
                    12:f9:f1:77:25:16:dc:9c:d6:94:50:3b:82:d2:b0:
                    35:ea:bd:f0:16:c8:54:d2:11
                Exponent: 65537 (0x10001)
        X509v3 extensions:
            X509v3 Subject Key Identifier: 
                50:14:99:3B:FB:77:56:00:9A:6B:2C:4C:F4:DC:68:4D:C5:5A:07:4B
            X509v3 Authority Key Identifier: 
                keyid:50:14:99:3B:FB:77:56:00:9A:6B:2C:4C:F4:DC:68:4D:C5:5A:07:4B
                DirName:/C=US/ST=CA/L=San Francisco/O=osafoundation.org/OU=CA/CN=OSAF CA/emailAddress=hostmaster@osafoundation.org
                serial:00

            X509v3 Basic Constraints: 
                CA:TRUE
    Signature Algorithm: md5WithRSAEncryption
        07:4f:93:69:78:6d:00:70:e3:59:90:bd:32:c6:15:55:31:f3:
        da:04:aa:69:56:f1:f3:21:d3:af:cf:84:dc:8a:3e:f0:3e:22:
        9f:c7:2f:87:e5:ef:50:3c:68:66:08:34:0d:8a:19:07:84:32:
        2e:a3:6d:c9:8a:a6:44:e4:79:dd:02:ec:ac:da:c8:59:20:82:
        ff:d2:66:d9:9e:89:bc:ce:8d:02:5b:3b:95:90:09:18:18:b8:
        5f:6d:ed:18:a3:93:ba:22:02:dd:d4:de:b3:88:1b:51:ac:34:
        f7:8a:69:22:b2:73:e0:69:a9:df:69:85:8f:9f:3c:db:19:7f:
        c6:f8

-----BEGIN CERTIFICATE-----
MIIDpzCCAxCgAwIBAgIBADANBgkqhkiG9w0BAQQFADCBmjELMAkGA1UEBhMCVVMx
CzAJBgNVBAgTAkNBMRYwFAYDVQQHEw1TYW4gRnJhbmNpc2NvMRowGAYDVQQKExFv
c2Fmb3VuZGF0aW9uLm9yZzELMAkGA1UECxMCQ0ExEDAOBgNVBAMTB09TQUYgQ0Ex
KzApBgkqhkiG9w0BCQEWHGhvc3RtYXN0ZXJAb3NhZm91bmRhdGlvbi5vcmcwHhcN
MDQwNjAyMjEzNTIzWhcNMjkwNTI3MjEzNTIzWjCBmjELMAkGA1UEBhMCVVMxCzAJ
BgNVBAgTAkNBMRYwFAYDVQQHEw1TYW4gRnJhbmNpc2NvMRowGAYDVQQKExFvc2Fm
b3VuZGF0aW9uLm9yZzELMAkGA1UECxMCQ0ExEDAOBgNVBAMTB09TQUYgQ0ExKzAp
BgkqhkiG9w0BCQEWHGhvc3RtYXN0ZXJAb3NhZm91bmRhdGlvbi5vcmcwgZ8wDQYJ
KoZIhvcNAQEBBQADgY0AMIGJAoGBAMvKQY9ElPz4UOhYwKPhbHpSzxxGXxQHiOGu
QDV9HuTaTD53cs4xhTau5nLrbqR6qkOpaxgq4+xGZGXwwdrl6vABXGamBAIS8U+C
IoxMZmdi1zNCHpALjrUOr5zG+l5lbxKMzzfbBgz0EvnxdyUW3JzWlFA7gtKwNeq9
8BbIVNIRAgMBAAGjgfowgfcwHQYDVR0OBBYEFFAUmTv7d1YAmmssTPTcaE3FWgdL
MIHHBgNVHSMEgb8wgbyAFFAUmTv7d1YAmmssTPTcaE3FWgdLoYGgpIGdMIGaMQsw
CQYDVQQGEwJVUzELMAkGA1UECBMCQ0ExFjAUBgNVBAcTDVNhbiBGcmFuY2lzY28x
GjAYBgNVBAoTEW9zYWZvdW5kYXRpb24ub3JnMQswCQYDVQQLEwJDQTEQMA4GA1UE
AxMHT1NBRiBDQTErMCkGCSqGSIb3DQEJARYcaG9zdG1hc3RlckBvc2Fmb3VuZGF0
aW9uLm9yZ4IBADAMBgNVHRMEBTADAQH/MA0GCSqGSIb3DQEBBAUAA4GBAAdPk2l4
bQBw41mQvTLGFVUx89oEqmlW8fMh06/PhNyKPvA+Ip/HL4fl71A8aGYINA2KGQeE
Mi6jbcmKpkTked0C7KzayFkggv/SZtmeibzOjQJbO5WQCRgYuF9t7Rijk7oiAt3U
3rOIG1GsNPeKaSKyc+Bpqd9phY+fPNsZf8b4
-----END CERTIFICATE-----
